; ModuleID = 'bench/libpng/original/pngrio.ll'
source_filename = "bench/libpng/original/pngrio.ll"
target datalayout = "e-m:e-p270:32:32-p271:32:32-p272:64:64-i64:64-i128:128-f80:128-n8:16:32:64-S128"
target triple = "x86_64-pc-linux-gnu"

@.str = private unnamed_addr constant [27 x i8] c"Call to NULL read function\00", align 1
@.str.1 = private unnamed_addr constant [11 x i8] c"Read Error\00", align 1
@.str.2 = private unnamed_addr constant [68 x i8] c"Can't set both read_data_fn and write_data_fn in the same structure\00", align 1

; Function Attrs: nounwind uwtable
define void @png_read_data(ptr noalias noundef %0, ptr noundef %1, i64 noundef %2) local_unnamed_addr #0 {
  %4 = getelementptr inbounds nuw i8, ptr %0, i64 256
  %5 = load ptr, ptr %4, align 8, !tbaa !3
  %.not = icmp eq ptr %5, null
  br i1 %.not, label %7, label %6

6:                                                ; preds = %3
  tail call void %5(ptr noundef nonnull %0, ptr noundef %1, i64 noundef %2) #4
  ret void

7:                                                ; preds = %3
  tail call void @png_error(ptr noundef nonnull %0, ptr noundef nonnull @.str) #5
  unreachable
}

; Function Attrs: noreturn
declare void @png_error(ptr noundef, ptr noundef) local_unnamed_addr #1

; Function Attrs: nounwind uwtable
define void @png_default_read_data(ptr noundef %0, ptr noundef captures(none) %1, i64 noundef %2) #0 {
  %4 = icmp eq ptr %0, null
  br i1 %4, label %10, label %5

5:                                                ; preds = %3
  %6 = getelementptr inbounds nuw i8, ptr %0, i64 264
  %7 = load ptr, ptr %6, align 8, !tbaa !22
  %8 = tail call i64 @fread(ptr noundef %1, i64 noundef 1, i64 noundef %2, ptr noundef %7)
  %.not = icmp eq i64 %8, %2
  br i1 %.not, label %10, label %9

9:                                                ; preds = %5
  tail call void @png_error(ptr noundef nonnull %0, ptr noundef nonnull @.str.1) #5
  unreachable

10:                                               ; preds = %5, %3
  ret void
}

; Function Attrs: nofree nounwind
declare noundef i64 @fread(ptr noundef captures(none), i64 noundef, i64 noundef, ptr noundef captures(none)) local_unnamed_addr #2

; Function Attrs: nounwind uwtable
define void @png_set_read_fn(ptr noalias noundef %0, ptr noundef %1, ptr noundef %2) local_unnamed_addr #0 {
  %4 = icmp eq ptr %0, null
  br i1 %4, label %13, label %5

5:                                                ; preds = %3
  %6 = getelementptr inbounds nuw i8, ptr %0, i64 264
  store ptr %1, ptr %6, align 8, !tbaa !22
  %.not = icmp eq ptr %2, null
  %spec.select = select i1 %.not, ptr @png_default_read_data, ptr %2
  %7 = getelementptr inbounds nuw i8, ptr %0, i64 256
  store ptr %spec.select, ptr %7, align 8, !tbaa !3
  %8 = getelementptr inbounds nuw i8, ptr %0, i64 248
  %9 = load ptr, ptr %8, align 8, !tbaa !23
  %.not12 = icmp eq ptr %9, null
  br i1 %.not12, label %11, label %10

10:                                               ; preds = %5
  store ptr null, ptr %8, align 8, !tbaa !23
  tail call void @png_warning(ptr noundef nonnull %0, ptr noundef nonnull @.str.2) #4
  br label %11

11:                                               ; preds = %10, %5
  %12 = getelementptr inbounds nuw i8, ptr %0, i64 664
  store ptr null, ptr %12, align 8, !tbaa !24
  br label %13

13:                                               ; preds = %3, %11
  ret void
}

declare void @png_warning(ptr noundef, ptr noundef) local_unnamed_addr #3


!llvm.module.flags = !{!0, !1, !2}

!0 = !{i32 1, !"wchar_size", i32 4}
!1 = !{i32 8, !"PIC Level", i32 2}
!2 = !{i32 7, !"uwtable", i32 2}
!3 = !{!4, !7, i64 256}
!4 = !{!"png_struct_def", !5, i64 0, !7, i64 200, !8, i64 208, !9, i64 216, !7, i64 224, !7, i64 232, !7, i64 240, !7, i64 248, !7, i64 256, !7, i64 264, !7, i64 272, !7, i64 280, !7, i64 288, !5, i64 296, !5, i64 297, !10, i64 300, !10, i64 304, !10, i64 308, !10, i64 312, !11, i64 320, !14, i64 432, !10, i64 440, !10, i64 444, !10, i64 448, !10, i64 452, !10, i64 456, !10, i64 460, !10, i64 464, !10, i64 468, !10, i64 472, !10, i64 476, !10, i64 480, !10, i64 484, !10, i64 488, !10, i64 492, !10, i64 496, !10, i64 500, !10, i64 504, !10, i64 508, !10, i64 512, !10, i64 516, !10, i64 520, !9, i64 528, !10, i64 536, !10, i64 540, !10, i64 544, !12, i64 552, !12, i64 560, !12, i64 568, !12, i64 576, !9, i64 584, !10, i64 592, !10, i64 596, !15, i64 600, !16, i64 608, !10, i64 612, !16, i64 616, !5, i64 618, !5, i64 619, !5, i64 620, !5, i64 621, !5, i64 622, !5, i64 623, !5, i64 624, !5, i64 625, !5, i64 626, !5, i64 627, !5, i64 628, !5, i64 629, !5, i64 630, !5, i64 631, !5, i64 632, !16, i64 634, !5, i64 636, !10, i64 640, !17, i64 644, !17, i64 654, !7, i64 664, !10, i64 672, !10, i64 676, !18, i64 680, !10, i64 712, !10, i64 716, !10, i64 720, !10, i64 724, !10, i64 728, !12, i64 736, !19, i64 744, !12, i64 752, !12, i64 760, !19, i64 768, !19, i64 776, !20, i64 784, !20, i64 789, !12, i64 800, !17, i64 808, !7, i64 824, !7, i64 832, !7, i64 840, !7, i64 848, !7, i64 856, !12, i64 864, !12, i64 872, !12, i64 880, !12, i64 888, !10, i64 896, !10, i64 900, !9, i64 904, !9, i64 912, !9, i64 920, !9, i64 928, !10, i64 936, !10, i64 940, !12, i64 944, !12, i64 952, !10, i64 960, !5, i64 964, !10, i64 996, !7, i64 1000, !7, i64 1008, !10, i64 1016, !10, i64 1020, !12, i64 1024, !5, i64 1032, !5, i64 1033, !16, i64 1034, !16, i64 1036, !12, i64 1040, !10, i64 1048, !5, i64 1052, !7, i64 1056, !7, i64 1064, !7, i64 1072, !12, i64 1080, !12, i64 1088, !12, i64 1096, !12, i64 1104, !5, i64 1112, !10, i64 1116, !10, i64 1120, !10, i64 1124, !9, i64 1128, !21, i64 1136, !9, i64 1168, !12, i64 1176, !9, i64 1184, !10, i64 1192, !10, i64 1196, !12, i64 1200, !5, i64 1208}
!5 = !{!"omnipotent char", !6, i64 0}
!6 = !{!"Simple C/C++ TBAA"}
!7 = !{!"any pointer", !5, i64 0}
!8 = !{!"p1 _ZTS13__jmp_buf_tag", !7, i64 0}
!9 = !{!"long", !5, i64 0}
!10 = !{!"int", !5, i64 0}
!11 = !{!"z_stream_s", !12, i64 0, !10, i64 8, !9, i64 16, !12, i64 24, !10, i64 32, !9, i64 40, !12, i64 48, !13, i64 56, !7, i64 64, !7, i64 72, !7, i64 80, !10, i64 88, !9, i64 96, !9, i64 104}
!12 = !{!"p1 omnipotent char", !7, i64 0}
!13 = !{!"p1 _ZTS14internal_state", !7, i64 0}
!14 = !{!"p1 _ZTS22png_compression_buffer", !7, i64 0}
!15 = !{!"p1 _ZTS16png_color_struct", !7, i64 0}
!16 = !{!"short", !5, i64 0}
!17 = !{!"png_color_16_struct", !5, i64 0, !16, i64 2, !16, i64 4, !16, i64 6, !16, i64 8}
!18 = !{!"png_xy", !10, i64 0, !10, i64 4, !10, i64 8, !10, i64 12, !10, i64 16, !10, i64 20, !10, i64 24, !10, i64 28}
!19 = !{!"p2 short", !7, i64 0}
!20 = !{!"png_color_8_struct", !5, i64 0, !5, i64 1, !5, i64 2, !5, i64 3, !5, i64 4}
!21 = !{!"png_unknown_chunk_t", !5, i64 0, !12, i64 8, !9, i64 16, !5, i64 24}
!22 = !{!4, !7, i64 264}
!23 = !{!4, !7, i64 248}
!24 = !{!4, !7, i64 664}
